target datalayout = "e-m:e-p270:32:32-p271:32:32-p272:64:64-i64:64-i128:128-f80:128-n8:16:32:64-S128"
target triple = "x86_64-pc-linux-gnu"

%struct.lua_State = type { ptr, i8, i8, i8, i8, i16, %union.StkIdRel, ptr, ptr, %union.StkIdRel, %union.StkIdRel, ptr, %union.StkIdRel, ptr, ptr, ptr, %struct.CallInfo, ptr, i64, i32, i32, i32, i32, i32, %struct.anon.2 }
%union.StkIdRel = type { ptr }
%struct.CallInfo = type { %union.StkIdRel, %union.StkIdRel, ptr, ptr, %union.anon, %union.anon.1, i32 }
%union.anon = type { %struct.anon.0 }
%struct.anon.0 = type { ptr, i64, i64 }
%union.anon.1 = type { i32 }
%struct.anon.2 = type { i32, i32 }

; Function Attrs: nounwind uwtable
define hidden void @luaE_shrinkCI(ptr noundef %0) #0 {
  %2 = alloca ptr, align 8
  %3 = alloca ptr, align 8
  %4 = alloca ptr, align 8
  %5 = alloca i32, align 4
  %6 = alloca ptr, align 8
  store ptr %0, ptr %2, align 8, !tbaa !22
  call void @llvm.lifetime.start.p0(i64 8, ptr %3) #6
  %7 = load ptr, ptr %2, align 8, !tbaa !22
  %8 = getelementptr inbounds nuw %struct.lua_State, ptr %7, i32 0, i32 8
  %9 = load ptr, ptr %8, align 8, !tbaa !25
  %10 = getelementptr inbounds nuw %struct.CallInfo, ptr %9, i32 0, i32 3
  %11 = load ptr, ptr %10, align 8, !tbaa !32
  store ptr %11, ptr %3, align 8, !tbaa !23
  call void @llvm.lifetime.start.p0(i64 8, ptr %4) #6
  %12 = load ptr, ptr %3, align 8, !tbaa !23
  %13 = icmp eq ptr %12, null
  br i1 %13, label %14, label %15

14:                                               ; preds = %1
  store i32 1, ptr %5, align 4
  br label %47

15:                                               ; preds = %1
  br label %16

16:                                               ; preds = %45, %15
  %17 = load ptr, ptr %3, align 8, !tbaa !23
  %18 = getelementptr inbounds nuw %struct.CallInfo, ptr %17, i32 0, i32 3
  %19 = load ptr, ptr %18, align 8, !tbaa !32
  store ptr %19, ptr %4, align 8, !tbaa !23
  %20 = icmp ne ptr %19, null
  br i1 %20, label %21, label %46

21:                                               ; preds = %16
  call void @llvm.lifetime.start.p0(i64 8, ptr %6) #6
  %22 = load ptr, ptr %4, align 8, !tbaa !23
  %23 = getelementptr inbounds nuw %struct.CallInfo, ptr %22, i32 0, i32 3
  %24 = load ptr, ptr %23, align 8, !tbaa !32
  store ptr %24, ptr %6, align 8, !tbaa !23
  %25 = load ptr, ptr %6, align 8, !tbaa !23
  %26 = load ptr, ptr %3, align 8, !tbaa !23
  %27 = getelementptr inbounds nuw %struct.CallInfo, ptr %26, i32 0, i32 3
  store ptr %25, ptr %27, align 8, !tbaa !32
  %28 = load ptr, ptr %2, align 8, !tbaa !22
  %29 = getelementptr inbounds nuw %struct.lua_State, ptr %28, i32 0, i32 5
  %30 = load i16, ptr %29, align 4, !tbaa !35
  %31 = add i16 %30, -1
  store i16 %31, ptr %29, align 4, !tbaa !35
  %32 = load ptr, ptr %2, align 8, !tbaa !22
  %33 = load ptr, ptr %4, align 8, !tbaa !23
  call void @luaM_free_(ptr noundef %32, ptr noundef %33, i64 noundef 64)
  %34 = load ptr, ptr %6, align 8, !tbaa !23
  %35 = icmp eq ptr %34, null
  br i1 %35, label %36, label %37

36:                                               ; preds = %21
  store i32 3, ptr %5, align 4
  br label %43

37:                                               ; preds = %21
  %38 = load ptr, ptr %3, align 8, !tbaa !23
  %39 = load ptr, ptr %6, align 8, !tbaa !23
  %40 = getelementptr inbounds nuw %struct.CallInfo, ptr %39, i32 0, i32 2
  store ptr %38, ptr %40, align 8, !tbaa !33
  %41 = load ptr, ptr %6, align 8, !tbaa !23
  store ptr %41, ptr %3, align 8, !tbaa !23
  br label %42

42:                                               ; preds = %37
  store i32 0, ptr %5, align 4
  br label %43

43:                                               ; preds = %42, %36
  call void @llvm.lifetime.end.p0(i64 8, ptr %6) #6
  %44 = load i32, ptr %5, align 4
  switch i32 %44, label %50 [
    i32 0, label %45
    i32 3, label %46
  ]

45:                                               ; preds = %43
  br label %16

46:                                               ; preds = %43, %16
  store i32 0, ptr %5, align 4
  br label %47

47:                                               ; preds = %46, %14
  call void @llvm.lifetime.end.p0(i64 8, ptr %4) #6
  call void @llvm.lifetime.end.p0(i64 8, ptr %3) #6
  %48 = load i32, ptr %5, align 4
  switch i32 %48, label %50 [
    i32 0, label %49
    i32 1, label %49
  ]

49:                                               ; preds = %47, %47
  ret void

50:                                               ; preds = %47, %43
  unreachable
}