; Function Attrs: nounwind uwtable
define hidden void @luaE_shrinkCI(ptr noundef %0) local_unnamed_addr #2 {
  %2 = getelementptr inbounds nuw i8, ptr %0, i64 32
  %3 = load ptr, ptr %2, align 8, !tbaa !19
  %4 = getelementptr inbounds nuw i8, ptr %3, i64 24
  %5 = load ptr, ptr %4, align 8, !tbaa !28
  %6 = icmp eq ptr %5, null
  br i1 %6, label %.thread, label %.preheader

.preheader:                                       ; preds = %1
  %7 = getelementptr inbounds nuw i8, ptr %5, i64 24
  %8 = load ptr, ptr %7, align 8, !tbaa !28
  %.not20 = icmp eq ptr %8, null
  br i1 %.not20, label %.thread, label %.lr.ph

.lr.ph:                                           ; preds = %.preheader
  %9 = getelementptr inbounds nuw i8, ptr %0, i64 12
  br label %10

10:                                               ; preds = %.lr.ph, %18
  %11 = phi ptr [ %8, %.lr.ph ], [ %21, %18 ]
  %12 = phi ptr [ %7, %.lr.ph ], [ %20, %18 ]
  %.021 = phi ptr [ %5, %.lr.ph ], [ %14, %18 ]
  %13 = getelementptr inbounds nuw i8, ptr %11, i64 24
  %14 = load ptr, ptr %13, align 8, !tbaa !28
  store ptr %14, ptr %12, align 8, !tbaa !28
  %15 = load i16, ptr %9, align 4, !tbaa !31
  %16 = add i16 %15, -1
  store i16 %16, ptr %9, align 4, !tbaa !31
  tail call void @luaM_free_(ptr noundef nonnull %0, ptr noundef nonnull %11, i64 noundef 64) #8
  %17 = icmp eq ptr %14, null
  br i1 %17, label %.thread, label %18

18:                                               ; preds = %10
  %19 = getelementptr inbounds nuw i8, ptr %14, i64 16
  store ptr %.021, ptr %19, align 8, !tbaa !29
  %20 = getelementptr inbounds nuw i8, ptr %14, i64 24
  %21 = load ptr, ptr %20, align 8, !tbaa !28
  %.not = icmp eq ptr %21, null
  br i1 %.not, label %.thread, label %10

.thread:                                          ; preds = %18, %10, %.preheader, %1
  ret void
}